; Function Attrs: mustprogress uwtable
define { ptr, i64 } @_ZN7rocksdb15CompactionState15SmallestUserKeyEv(ptr noundef nonnull readonly align 8 captures(none) dereferenceable(48) %0) local_unnamed_addr #4 align 2 {
  %2 = getelementptr inbounds nuw i8, ptr %0, i64 8
  %3 = load ptr, ptr %2, align 8, !tbaa !18
  %4 = getelementptr inbounds nuw i8, ptr %0, i64 16
  %5 = load ptr, ptr %4, align 8, !tbaa !18
  %.not16 = icmp eq ptr %3, %5
  br i1 %.not16, label %.loopexit, label %.lr.ph

6:                                                ; preds = %.lr.ph
  %7 = getelementptr inbounds nuw i8, ptr %.sroa.05.017, i64 1080
  %.not = icmp eq ptr %7, %5
  br i1 %.not, label %.loopexit, label %.lr.ph

.lr.ph:                                           ; preds = %1, %6
  %.sroa.05.017 = phi ptr [ %7, %6 ], [ %3, %1 ]
  %8 = tail call { ptr, i64 } @_ZNK7rocksdb18SubcompactionState15SmallestUserKeyEv(ptr noundef nonnull align 8 dereferenceable(1080) %.sroa.05.017)
  %9 = extractvalue { ptr, i64 } %8, 1
  %10 = icmp eq i64 %9, 0
  br i1 %10, label %6, label %11

11:                                               ; preds = %.lr.ph
  %12 = extractvalue { ptr, i64 } %8, 0
  br label %.loopexit

.loopexit:                                        ; preds = %6, %1, %11
  %.sroa.08.2 = phi ptr [ %12, %11 ], [ null, %1 ], [ null, %6 ]
  %.sroa.3.2 = phi i64 [ %9, %11 ], [ 0, %1 ], [ 0, %6 ]
  %.fca.0.insert = insertvalue { ptr, i64 } poison, ptr %.sroa.08.2, 0
  %.fca.1.insert = insertvalue { ptr, i64 } %.fca.0.insert, i64 %.sroa.3.2, 1
  ret { ptr, i64 } %.fca.1.insert
}